target datalayout = "e-m:e-p270:32:32-p271:32:32-p272:64:64-i64:64-i128:128-f80:128-n8:16:32:64-S128"
target triple = "x86_64-pc-linux-gnu"

%"class.__gnu_cxx::__normal_iterator.128" = type { ptr }
%"struct.std::_Vector_base.78" = type { %"struct.std::_Vector_base<unsigned long, std::allocator<unsigned long>>::_Vector_impl" }
%"struct.std::_Vector_base<unsigned long, std::allocator<unsigned long>>::_Vector_impl" = type { %"struct.std::_Vector_base<unsigned long, std::allocator<unsigned long>>::_Vector_impl_data" }
%"struct.std::_Vector_base<unsigned long, std::allocator<unsigned long>>::_Vector_impl_data" = type { ptr, ptr, ptr }

; Function Attrs: mustprogress nounwind uwtable
define linkonce_odr hidden noundef nonnull align 8 dereferenceable(8) ptr @_ZNK9__gnu_cxx17__normal_iteratorIPKmSt6vectorImSaImEEE4baseEv(ptr noundef nonnull align 8 dereferenceable(8) %0) #0 comdat align 2 {
  %2 = alloca ptr, align 8
  store ptr %0, ptr %2, align 8
  %3 = load ptr, ptr %2, align 8
  %4 = getelementptr inbounds %"class.__gnu_cxx::__normal_iterator.128", ptr %3, i32 0, i32 0
  ret ptr %4
}

; Function Attrs: mustprogress nounwind uwtable
define linkonce_odr hidden void @_ZN9__gnu_cxx17__normal_iteratorIPKmSt6vectorImSaImEEEC2ERKS2_(ptr noundef nonnull align 8 dereferenceable(8) %0, ptr noundef nonnull align 8 dereferenceable(8) %1) unnamed_addr #0 comdat align 2 {
  %3 = alloca ptr, align 8
  %4 = alloca ptr, align 8
  store ptr %0, ptr %3, align 8
  store ptr %1, ptr %4, align 8
  %5 = load ptr, ptr %3, align 8
  %6 = getelementptr inbounds %"class.__gnu_cxx::__normal_iterator.128", ptr %5, i32 0, i32 0
  %7 = load ptr, ptr %4, align 8
  %8 = load ptr, ptr %7, align 8
  store ptr %8, ptr %6, align 8
  ret void
}

; Function Attrs: mustprogress nounwind uwtable
define linkonce_odr hidden noundef nonnull align 8 dereferenceable(8) ptr @_ZN9__gnu_cxx17__normal_iteratorIPKmSt6vectorImSaImEEEppEv(ptr noundef nonnull align 8 dereferenceable(8) %0) #0 comdat align 2 {
  %2 = alloca ptr, align 8
  store ptr %0, ptr %2, align 8
  %3 = load ptr, ptr %2, align 8
  %4 = getelementptr inbounds %"class.__gnu_cxx::__normal_iterator.128", ptr %3, i32 0, i32 0
  %5 = load ptr, ptr %4, align 8
  %6 = getelementptr inbounds i64, ptr %5, i32 1
  store ptr %6, ptr %4, align 8
  ret ptr %3
}

; Function Attrs: mustprogress nounwind uwtable
define linkonce_odr hidden noundef nonnull align 8 dereferenceable(8) ptr @_ZNK9__gnu_cxx17__normal_iteratorIPKmSt6vectorImSaImEEEdeEv(ptr noundef nonnull align 8 dereferenceable(8) %0) #0 comdat align 2 {
  %2 = alloca ptr, align 8
  store ptr %0, ptr %2, align 8
  %3 = load ptr, ptr %2, align 8
  %4 = getelementptr inbounds %"class.__gnu_cxx::__normal_iterator.128", ptr %3, i32 0, i32 0
  %5 = load ptr, ptr %4, align 8
  ret ptr %5
}

; Function Attrs: mustprogress nounwind uwtable
define linkonce_odr noundef zeroext i1 @_ZN9__gnu_cxxneIPKmSt6vectorImSaImEEEEbRKNS_17__normal_iteratorIT_T0_EESB_(ptr noundef nonnull align 8 dereferenceable(8) %0, ptr noundef nonnull align 8 dereferenceable(8) %1) #0 comdat {
  %3 = alloca ptr, align 8
  %4 = alloca ptr, align 8
  store ptr %0, ptr %3, align 8
  store ptr %1, ptr %4, align 8
  %5 = load ptr, ptr %3, align 8
  %6 = call noundef nonnull align 8 dereferenceable(8) ptr @_ZNK9__gnu_cxx17__normal_iteratorIPKmSt6vectorImSaImEEE4baseEv(ptr noundef nonnull align 8 dereferenceable(8) %5) #8
  %7 = load ptr, ptr %6, align 8
  %8 = load ptr, ptr %4, align 8
  %9 = call noundef nonnull align 8 dereferenceable(8) ptr @_ZNK9__gnu_cxx17__normal_iteratorIPKmSt6vectorImSaImEEE4baseEv(ptr noundef nonnull align 8 dereferenceable(8) %8) #8
  %10 = load ptr, ptr %9, align 8
  %11 = icmp ne ptr %7, %10
  ret i1 %11
}

; Function Attrs: mustprogress nounwind uwtable
define linkonce_odr hidden ptr @_ZNKSt6vectorImSaImEE3endEv(ptr noundef nonnull align 8 dereferenceable(24) %0) #0 comdat align 2 {
  %2 = alloca %"class.__gnu_cxx::__normal_iterator.128", align 8
  %3 = alloca ptr, align 8
  store ptr %0, ptr %3, align 8
  %4 = load ptr, ptr %3, align 8
  %5 = getelementptr inbounds %"struct.std::_Vector_base.78", ptr %4, i32 0, i32 0
  %6 = getelementptr inbounds %"struct.std::_Vector_base<unsigned long, std::allocator<unsigned long>>::_Vector_impl_data", ptr %5, i32 0, i32 1
  call void @_ZN9__gnu_cxx17__normal_iteratorIPKmSt6vectorImSaImEEEC2ERKS2_(ptr noundef nonnull align 8 dereferenceable(8) %2, ptr noundef nonnull align 8 dereferenceable(8) %6) #8
  %7 = getelementptr inbounds %"class.__gnu_cxx::__normal_iterator.128", ptr %2, i32 0, i32 0
  %8 = load ptr, ptr %7, align 8
  ret ptr %8
}

; Function Attrs: mustprogress nounwind uwtable
define linkonce_odr hidden ptr @_ZNKSt6vectorImSaImEE5beginEv(ptr noundef nonnull align 8 dereferenceable(24) %0) #0 comdat align 2 {
  %2 = alloca %"class.__gnu_cxx::__normal_iterator.128", align 8
  %3 = alloca ptr, align 8
  store ptr %0, ptr %3, align 8
  %4 = load ptr, ptr %3, align 8
  %5 = getelementptr inbounds %"struct.std::_Vector_base.78", ptr %4, i32 0, i32 0
  %6 = getelementptr inbounds %"struct.std::_Vector_base<unsigned long, std::allocator<unsigned long>>::_Vector_impl_data", ptr %5, i32 0, i32 0
  call void @_ZN9__gnu_cxx17__normal_iteratorIPKmSt6vectorImSaImEEEC2ERKS2_(ptr noundef nonnull align 8 dereferenceable(8) %2, ptr noundef nonnull align 8 dereferenceable(8) %6) #8
  %7 = getelementptr inbounds %"class.__gnu_cxx::__normal_iterator.128", ptr %2, i32 0, i32 0
  %8 = load ptr, ptr %7, align 8
  ret ptr %8
}

; Function Attrs: mustprogress uwtable
define linkonce_odr hidden noundef nonnull align 8 dereferenceable(64) ptr @_ZN4LIEF4Hash7processIN9__gnu_cxx17__normal_iteratorIPKmSt6vectorImSaImEEEEEERS0_T_SB_(ptr noundef nonnull align 8 dereferenceable(64) %0, ptr %1, ptr %2) #3 comdat align 2 {
  %4 = alloca %"class.__gnu_cxx::__normal_iterator.128", align 8
  %5 = alloca %"class.__gnu_cxx::__normal_iterator.128", align 8
  %6 = alloca ptr, align 8
  %7 = alloca ptr, align 8
  %8 = getelementptr inbounds %"class.__gnu_cxx::__normal_iterator.128", ptr %4, i32 0, i32 0
  store ptr %1, ptr %8, align 8
  %9 = getelementptr inbounds %"class.__gnu_cxx::__normal_iterator.128", ptr %5, i32 0, i32 0
  store ptr %2, ptr %9, align 8
  store ptr %0, ptr %6, align 8
  %10 = load ptr, ptr %6, align 8
  store ptr %4, ptr %7, align 8
  br label %11

11:                                               ; preds = %22, %3
  %12 = load ptr, ptr %7, align 8
  %13 = call noundef zeroext i1 @_ZN9__gnu_cxxneIPKmSt6vectorImSaImEEEEbRKNS_17__normal_iteratorIT_T0_EESB_(ptr noundef nonnull align 8 dereferenceable(8) %12, ptr noundef nonnull align 8 dereferenceable(8) %5) #8
  br i1 %13, label %14, label %25

14:                                               ; preds = %11
  %15 = load ptr, ptr %7, align 8
  %16 = call noundef nonnull align 8 dereferenceable(8) ptr @_ZNK9__gnu_cxx17__normal_iteratorIPKmSt6vectorImSaImEEEdeEv(ptr noundef nonnull align 8 dereferenceable(8) %15) #8
  %17 = load i64, ptr %16, align 8
  %18 = load ptr, ptr %10, align 8
  %19 = getelementptr inbounds ptr, ptr %18, i64 166
  %20 = load ptr, ptr %19, align 8
  %21 = call noundef nonnull align 8 dereferenceable(64) ptr %20(ptr noundef nonnull align 8 dereferenceable(64) %10, i64 noundef %17)
  br label %22

22:                                               ; preds = %14
  %23 = load ptr, ptr %7, align 8
  %24 = call noundef nonnull align 8 dereferenceable(8) ptr @_ZN9__gnu_cxx17__normal_iteratorIPKmSt6vectorImSaImEEEppEv(ptr noundef nonnull align 8 dereferenceable(8) %23) #8
  br label %11, !llvm.loop !13

25:                                               ; preds = %11
  ret ptr %10
}

; Function Attrs: mustprogress nounwind uwtable
define linkonce_odr ptr @_ZSt3endISt6vectorImSaImEEEDTcldtfp_3endEERKT_(ptr noundef nonnull align 8 dereferenceable(24) %0) #0 comdat {
  %2 = alloca %"class.__gnu_cxx::__normal_iterator.128", align 8
  %3 = alloca ptr, align 8
  store ptr %0, ptr %3, align 8
  %4 = load ptr, ptr %3, align 8
  %5 = call ptr @_ZNKSt6vectorImSaImEE3endEv(ptr noundef nonnull align 8 dereferenceable(24) %4) #8
  %6 = getelementptr inbounds %"class.__gnu_cxx::__normal_iterator.128", ptr %2, i32 0, i32 0
  store ptr %5, ptr %6, align 8
  %7 = getelementptr inbounds %"class.__gnu_cxx::__normal_iterator.128", ptr %2, i32 0, i32 0
  %8 = load ptr, ptr %7, align 8
  ret ptr %8
}

; Function Attrs: mustprogress nounwind uwtable
define linkonce_odr ptr @_ZSt5beginISt6vectorImSaImEEEDTcldtfp_5beginEERKT_(ptr noundef nonnull align 8 dereferenceable(24) %0) #0 comdat {
  %2 = alloca %"class.__gnu_cxx::__normal_iterator.128", align 8
  %3 = alloca ptr, align 8
  store ptr %0, ptr %3, align 8
  %4 = load ptr, ptr %3, align 8
  %5 = call ptr @_ZNKSt6vectorImSaImEE5beginEv(ptr noundef nonnull align 8 dereferenceable(24) %4) #8
  %6 = getelementptr inbounds %"class.__gnu_cxx::__normal_iterator.128", ptr %2, i32 0, i32 0
  store ptr %5, ptr %6, align 8
  %7 = getelementptr inbounds %"class.__gnu_cxx::__normal_iterator.128", ptr %2, i32 0, i32 0
  %8 = load ptr, ptr %7, align 8
  ret ptr %8
}

; Function Attrs: mustprogress uwtable
define linkonce_odr hidden noundef nonnull align 8 dereferenceable(64) ptr @_ZN4LIEF4Hash7processImEERS0_RKSt6vectorIT_SaIS4_EE(ptr noundef nonnull align 8 dereferenceable(64) %0, ptr noundef nonnull align 8 dereferenceable(24) %1) #3 comdat align 2 {
  %3 = alloca ptr, align 8
  %4 = alloca ptr, align 8
  %5 = alloca %"class.__gnu_cxx::__normal_iterator.128", align 8
  %6 = alloca %"class.__gnu_cxx::__normal_iterator.128", align 8
  store ptr %0, ptr %3, align 8
  store ptr %1, ptr %4, align 8
  %7 = load ptr, ptr %3, align 8
  %8 = load ptr, ptr %4, align 8
  %9 = call ptr @_ZSt5beginISt6vectorImSaImEEEDTcldtfp_5beginEERKT_(ptr noundef nonnull align 8 dereferenceable(24) %8)
  %10 = getelementptr inbounds %"class.__gnu_cxx::__normal_iterator.128", ptr %5, i32 0, i32 0
  store ptr %9, ptr %10, align 8
  %11 = load ptr, ptr %4, align 8
  %12 = call ptr @_ZSt3endISt6vectorImSaImEEEDTcldtfp_3endEERKT_(ptr noundef nonnull align 8 dereferenceable(24) %11)
  %13 = getelementptr inbounds %"class.__gnu_cxx::__normal_iterator.128", ptr %6, i32 0, i32 0
  store ptr %12, ptr %13, align 8
  %14 = getelementptr inbounds %"class.__gnu_cxx::__normal_iterator.128", ptr %5, i32 0, i32 0
  %15 = load ptr, ptr %14, align 8
  %16 = getelementptr inbounds %"class.__gnu_cxx::__normal_iterator.128", ptr %6, i32 0, i32 0
  %17 = load ptr, ptr %16, align 8
  %18 = call noundef nonnull align 8 dereferenceable(64) ptr @_ZN4LIEF4Hash7processIN9__gnu_cxx17__normal_iteratorIPKmSt6vectorImSaImEEEEEERS0_T_SB_(ptr noundef nonnull align 8 dereferenceable(64) %7, ptr %15, ptr %17)
  ret ptr %7
}

; Function Attrs: mustprogress nounwind uwtable
define linkonce_odr hidden noundef ptr @_ZNK4LIEF6Object2asINS_5MachO11LoadCommandEEENSt11add_pointerINSt9add_constINSt5decayIT_E4typeEE4typeEE4typeEv(ptr noundef nonnull align 8 dereferenceable(8) %0) #0 comdat align 2 {
  %2 = alloca ptr, align 8
  store ptr %0, ptr %2, align 8
  %3 = load ptr, ptr %2, align 8
  ret ptr %3
}

; Function Attrs: mustprogress uwtable
define void @_ZN4LIEF5MachO4Hash5visitERKNS0_14FunctionStartsE(ptr noundef nonnull align 8 dereferenceable(64) %0, ptr noundef nonnull align 8 dereferenceable(104) %1) unnamed_addr #3 align 2 {
  %3 = alloca ptr, align 8
  %4 = alloca ptr, align 8
  store ptr %0, ptr %3, align 8
  store ptr %1, ptr %4, align 8
  %5 = load ptr, ptr %3, align 8
  %6 = load ptr, ptr %4, align 8
  %7 = call noundef ptr @_ZNK4LIEF6Object2asINS_5MachO11LoadCommandEEENSt11add_pointerINSt9add_constINSt5decayIT_E4typeEE4typeEE4typeEv(ptr noundef nonnull align 8 dereferenceable(8) %6)
  %8 = load ptr, ptr %5, align 8
  %9 = getelementptr inbounds ptr, ptr %8, i64 109
  %10 = load ptr, ptr %9, align 8
  call void %10(ptr noundef nonnull align 8 dereferenceable(64) %5, ptr noundef nonnull align 8 dereferenceable(56) %7)
  %11 = load ptr, ptr %4, align 8
  %12 = call noundef i32 @_ZNK4LIEF5MachO14FunctionStarts11data_offsetEv(ptr noundef nonnull align 8 dereferenceable(104) %11)
  %13 = zext i32 %12 to i64
  %14 = load ptr, ptr %5, align 8
  %15 = getelementptr inbounds ptr, ptr %14, i64 166
  %16 = load ptr, ptr %15, align 8
  %17 = call noundef nonnull align 8 dereferenceable(64) ptr %16(ptr noundef nonnull align 8 dereferenceable(64) %5, i64 noundef %13)
  %18 = load ptr, ptr %4, align 8
  %19 = call noundef i32 @_ZNK4LIEF5MachO14FunctionStarts9data_sizeEv(ptr noundef nonnull align 8 dereferenceable(104) %18)
  %20 = zext i32 %19 to i64
  %21 = load ptr, ptr %5, align 8
  %22 = getelementptr inbounds ptr, ptr %21, i64 166
  %23 = load ptr, ptr %22, align 8
  %24 = call noundef nonnull align 8 dereferenceable(64) ptr %23(ptr noundef nonnull align 8 dereferenceable(64) %5, i64 noundef %20)
  %25 = load ptr, ptr %4, align 8
  %26 = call noundef nonnull align 8 dereferenceable(24) ptr @_ZNK4LIEF5MachO14FunctionStarts9functionsEv(ptr noundef nonnull align 8 dereferenceable(104) %25)
  %27 = call noundef nonnull align 8 dereferenceable(64) ptr @_ZN4LIEF4Hash7processImEERS0_RKSt6vectorIT_SaIS4_EE(ptr noundef nonnull align 8 dereferenceable(64) %5, ptr noundef nonnull align 8 dereferenceable(24) %26)
  ret void
}