; Function Attrs: mustprogress uwtable
define void @_ZN4LIEF5MachO4Hash5visitERKNS0_14FunctionStartsE(ptr noundef nonnull align 8 dereferenceable(64) %0, ptr noundef nonnull align 8 dereferenceable(104) %1) unnamed_addr #3 align 2 {
  %3 = load ptr, ptr %0, align 8
  %4 = getelementptr inbounds i8, ptr %3, i64 872
  %5 = load ptr, ptr %4, align 8
  tail call void %5(ptr noundef nonnull align 8 dereferenceable(64) %0, ptr noundef nonnull align 8 dereferenceable(56) %1)
  %6 = tail call noundef i32 @_ZNK4LIEF5MachO14FunctionStarts11data_offsetEv(ptr noundef nonnull align 8 dereferenceable(104) %1)
  %7 = zext i32 %6 to i64
  %8 = load ptr, ptr %0, align 8
  %9 = getelementptr inbounds i8, ptr %8, i64 1328
  %10 = load ptr, ptr %9, align 8
  %11 = tail call noundef nonnull align 8 dereferenceable(64) ptr %10(ptr noundef nonnull align 8 dereferenceable(64) %0, i64 noundef %7)
  %12 = tail call noundef i32 @_ZNK4LIEF5MachO14FunctionStarts9data_sizeEv(ptr noundef nonnull align 8 dereferenceable(104) %1)
  %13 = zext i32 %12 to i64
  %14 = load ptr, ptr %0, align 8
  %15 = getelementptr inbounds i8, ptr %14, i64 1328
  %16 = load ptr, ptr %15, align 8
  %17 = tail call noundef nonnull align 8 dereferenceable(64) ptr %16(ptr noundef nonnull align 8 dereferenceable(64) %0, i64 noundef %13)
  %18 = tail call noundef nonnull align 8 dereferenceable(24) ptr @_ZNK4LIEF5MachO14FunctionStarts9functionsEv(ptr noundef nonnull align 8 dereferenceable(104) %1)
  %19 = load ptr, ptr %18, align 8
  %20 = getelementptr inbounds i8, ptr %18, i64 8
  %21 = load ptr, ptr %20, align 8
  %.not7.i.i = icmp eq ptr %19, %21
  br i1 %.not7.i.i, label %_ZN4LIEF4Hash7processImEERS0_RKSt6vectorIT_SaIS4_EE.exit, label %.lr.ph.i.i

.lr.ph.i.i:                                       ; preds = %2, %.lr.ph.i.i
  %.sroa.04.08.i.i = phi ptr [ %27, %.lr.ph.i.i ], [ %19, %2 ]
  %22 = load i64, ptr %.sroa.04.08.i.i, align 8
  %23 = load ptr, ptr %0, align 8
  %24 = getelementptr inbounds i8, ptr %23, i64 1328
  %25 = load ptr, ptr %24, align 8
  %26 = tail call noundef nonnull align 8 dereferenceable(64) ptr %25(ptr noundef nonnull align 8 dereferenceable(64) %0, i64 noundef %22)
  %27 = getelementptr inbounds i8, ptr %.sroa.04.08.i.i, i64 8
  %.not.i.i = icmp eq ptr %27, %21
  br i1 %.not.i.i, label %_ZN4LIEF4Hash7processImEERS0_RKSt6vectorIT_SaIS4_EE.exit, label %.lr.ph.i.i, !llvm.loop !51

_ZN4LIEF4Hash7processImEERS0_RKSt6vectorIT_SaIS4_EE.exit: ; preds = %.lr.ph.i.i, %2
  ret void
}